; Function Attrs: mustprogress uwtable
define void @_ZN7rocksdb16MutableCFOptionsC2ERKNS_7OptionsE(ptr noundef nonnull align 8 dereferenceable(560) %this, ptr noundef nonnull align 8 dereferenceable(1508) %options) unnamed_addr #2 align 2 personality ptr @__gxx_personality_v0 {
entry:
  %ref.tmp = alloca %"struct.rocksdb::ColumnFamilyOptions", align 8
  call void @_ZN7rocksdb19ColumnFamilyOptionsC1ERKNS_7OptionsE(ptr noundef nonnull align 8 dereferenceable(820) %ref.tmp, ptr noundef nonnull align 8 dereferenceable(1508) %options)
  invoke void @_ZN7rocksdb16MutableCFOptionsC2ERKNS_19ColumnFamilyOptionsE(ptr noundef nonnull align 8 dereferenceable(560) %this, ptr noundef nonnull align 8 dereferenceable(820) %ref.tmp)
          to label %invoke.cont unwind label %lpad

invoke.cont:                                      ; preds = %entry
  call void @_ZN7rocksdb19ColumnFamilyOptionsD2Ev(ptr noundef nonnull align 8 dereferenceable(820) %ref.tmp) #27
  ret void

lpad:                                             ; preds = %entry
  %0 = landingpad { ptr, i32 }
          cleanup
  call void @_ZN7rocksdb19ColumnFamilyOptionsD2Ev(ptr noundef nonnull align 8 dereferenceable(820) %ref.tmp) #27
  resume { ptr, i32 } %0
}